; Function Attrs: mustprogress uwtable
define noundef range(i32 -30994, 1) i32 @_ZN4toku8locktree12acquire_lockEbmPK10__toku_dbtS3_PNS_9txnid_setE(ptr noundef nonnull align 8 dereferenceable(400) %0, i1 noundef zeroext %1, i64 noundef %2, ptr noundef %3, ptr noundef %4, ptr noundef %5) local_unnamed_addr #0 align 2 {
  %7 = alloca %"class.toku::concurrent_tree::locked_keyrange", align 8
  call void @llvm.lifetime.start.p0(i64 104, ptr nonnull %7) #21
  %8 = getelementptr inbounds nuw i8, ptr %0, i64 64
  %9 = load ptr, ptr %8, align 8, !tbaa !44
  call void @_ZN4toku15concurrent_tree15locked_keyrange7prepareEPS0_(ptr noundef nonnull align 8 dereferenceable(104) %7, ptr noundef %9)
  %10 = call noundef zeroext i1 @_ZN4toku8locktree15sto_try_acquireEPvmPK10__toku_dbtS4_b(ptr noundef nonnull align 8 dereferenceable(400) %0, ptr noundef nonnull %7, i64 noundef %2, ptr noundef %3, ptr noundef %4, i1 noundef zeroext %1)
  br i1 %10, label %13, label %11

11:                                               ; preds = %6
  %12 = call noundef i32 @_ZN4toku8locktree25acquire_lock_consolidatedEPvmPK10__toku_dbtS4_bPNS_9txnid_setE(ptr noundef nonnull align 8 dereferenceable(400) %0, ptr noundef nonnull %7, i64 noundef %2, ptr noundef %3, ptr noundef %4, i1 noundef zeroext %1, ptr noundef %5)
  br label %13

13:                                               ; preds = %11, %6
  %.0 = phi i32 [ 0, %6 ], [ %12, %11 ]
  call void @_ZN4toku15concurrent_tree15locked_keyrange7releaseEv(ptr noundef nonnull align 8 dereferenceable(104) %7)
  call void @llvm.lifetime.end.p0(i64 104, ptr nonnull %7) #21
  ret i32 %.0
}